Archive member included because of file (symbol)

/Users/Rick/pebble-dev/myprojects/PebbleMTGLifeCounter/lib/libpebble.a(tmpE96Sgtpebble_os.o)
                              src/MTGLifeCounter.c.1.o (app_event_loop)
/Users/Rick/pebble-dev/arm-cs-tools/bin/../lib/gcc/arm-none-eabi/4.6.3/../../../../arm-none-eabi/lib/thumb2/libc.a(lib_a-memset.o)
                              src/MTGLifeCounter.c.1.o (memset)

Allocating common symbols
Common symbol       size              file

app                 0x4               src/MTGLifeCounter.c.1.o

Memory Configuration

Name             Origin             Length             Attributes
APP              0x0000000000000000 0x0000000000006000 xrw
*default*        0x0000000000000000 0xffffffffffffffff

Linker script and memory map

LOAD /Users/Rick/pebble-dev/arm-cs-tools/bin/../lib/gcc/arm-none-eabi/4.6.3/thumb2/crti.o
LOAD /Users/Rick/pebble-dev/arm-cs-tools/bin/../lib/gcc/arm-none-eabi/4.6.3/thumb2/crtbegin.o
LOAD src/MTGLifeCounter.c.1.o
LOAD /Users/Rick/pebble-dev/myprojects/PebbleMTGLifeCounter/lib/libpebble.a
START GROUP
LOAD /Users/Rick/pebble-dev/arm-cs-tools/bin/../lib/gcc/arm-none-eabi/4.6.3/thumb2/libgcc.a
LOAD /Users/Rick/pebble-dev/arm-cs-tools/bin/../lib/gcc/arm-none-eabi/4.6.3/../../../../arm-none-eabi/lib/thumb2/libc.a
END GROUP
LOAD /Users/Rick/pebble-dev/arm-cs-tools/bin/../lib/gcc/arm-none-eabi/4.6.3/thumb2/crtend.o
LOAD /Users/Rick/pebble-dev/arm-cs-tools/bin/../lib/gcc/arm-none-eabi/4.6.3/thumb2/crtn.o

.header         0x0000000000000000       0x7c
 *(.pbl_header)
 .pbl_header    0x0000000000000000       0x7c src/MTGLifeCounter.c.1.o
                0x0000000000000000                __pbl_app_info

.text           0x000000000000007c     0x12bc
 *(.text)
 .text          0x000000000000007c        0x0 /Users/Rick/pebble-dev/arm-cs-tools/bin/../lib/gcc/arm-none-eabi/4.6.3/thumb2/crti.o
 .text          0x000000000000007c       0x68 /Users/Rick/pebble-dev/arm-cs-tools/bin/../lib/gcc/arm-none-eabi/4.6.3/thumb2/crtbegin.o
 .text          0x00000000000000e4      0x6c8 src/MTGLifeCounter.c.1.o
                0x00000000000000e4                itoa2
                0x00000000000002dc                DisplayCountA
                0x0000000000000314                DisplayCountB
                0x000000000000034c                ResetHandler
                0x0000000000000384                IncrementAHandler
                0x00000000000003b4                DecrementAHandler
                0x00000000000003f0                IncrementBHandler
                0x0000000000000420                DecrementBHandler
                0x000000000000045c                ConfigProvider
                0x00000000000004f4                InitHandler
                0x0000000000000744                DeinitHandler
                0x0000000000000764                pbl_main
 .text          0x00000000000007ac      0xb8c /Users/Rick/pebble-dev/myprojects/PebbleMTGLifeCounter/lib/libpebble.a(tmpE96Sgtpebble_os.o)
                0x00000000000007ac                animation_init
                0x00000000000007b8                animation_set_delay
                0x00000000000007c4                animation_set_duration
                0x00000000000007d0                animation_set_curve
                0x00000000000007dc                animation_set_handlers
                0x00000000000007e8                animation_set_implementation
                0x00000000000007f4                animation_get_context
                0x0000000000000800                animation_schedule
                0x000000000000080c                animation_unschedule
                0x0000000000000818                animation_unschedule_all
                0x0000000000000824                animation_is_scheduled
                0x0000000000000830                app_timer_send_event
                0x000000000000083c                app_timer_cancel_event
                0x0000000000000848                app_event_loop
                0x0000000000000854                bmp_init_container
                0x0000000000000860                bmp_deinit_container
                0x000000000000086c                cos_lookup
                0x0000000000000878                fonts_get_system_font
                0x0000000000000884                fonts_load_custom_font
                0x0000000000000890                fonts_unload_custom_font
                0x000000000000089c                graphics_context_set_stroke_color
                0x00000000000008a8                graphics_context_set_fill_color
                0x00000000000008b4                graphics_context_set_text_color
                0x00000000000008c0                graphics_context_set_compositing_mode
                0x00000000000008cc                graphics_draw_pixel
                0x00000000000008d8                graphics_draw_line
                0x00000000000008e4                graphics_fill_rect
                0x00000000000008f0                graphics_draw_circle
                0x00000000000008fc                graphics_fill_circle
                0x0000000000000908                graphics_draw_round_rect
                0x0000000000000914                get_time
                0x0000000000000920                gpath_init
                0x000000000000092c                gpath_move_to
                0x0000000000000938                gpath_rotate_to
                0x0000000000000944                gpath_draw_outline
                0x0000000000000950                gpath_draw_filled
                0x000000000000095c                grect_center_point
                0x0000000000000968                layer_mark_dirty
                0x0000000000000974                layer_remove_from_parent
                0x0000000000000980                layer_add_child
                0x000000000000098c                layer_get_frame
                0x0000000000000998                layer_set_frame
                0x00000000000009a4                layer_set_hidden
                0x00000000000009b0                layer_init
                0x00000000000009bc                light_enable
                0x00000000000009c8                light_enable_interaction
                0x00000000000009d4                psleep
                0x00000000000009e0                resource_init_current_app
                0x00000000000009ec                resource_get_handle
                0x00000000000009f8                resource_load
                0x0000000000000a04                resource_load_byte_range
                0x0000000000000a10                resource_size
                0x0000000000000a1c                rotbmp_deinit_container
                0x0000000000000a28                rotbmp_init_container
                0x0000000000000a34                rotbmp_pair_deinit_container
                0x0000000000000a40                rotbmp_pair_init_container
                0x0000000000000a4c                rotbmp_pair_layer_set_src_ic
                0x0000000000000a58                rotbmp_pair_layer_set_angle
                0x0000000000000a64                window_init
                0x0000000000000a70                window_stack_push
                0x0000000000000a7c                window_set_click_config_provider
                0x0000000000000a88                window_set_background_color
                0x0000000000000a94                window_render
                0x0000000000000aa0                window_set_fullscreen
                0x0000000000000aac                sin_lookup
                0x0000000000000ab8                string_format_time
                0x0000000000000ac4                text_layer_init
                0x0000000000000ad0                text_layer_get_text
                0x0000000000000adc                text_layer_set_text
                0x0000000000000ae8                text_layer_set_font
                0x0000000000000af4                text_layer_set_text_color
                0x0000000000000b00                text_layer_set_background_color
                0x0000000000000b0c                vibes_double_pulse
                0x0000000000000b18                vibes_enqueue_custom_pattern
                0x0000000000000b24                vibes_long_pulse
                0x0000000000000b30                vibes_short_pulse
                0x0000000000000b3c                app_get_current_graphics_context
                0x0000000000000b48                clock_is_24h_style
                0x0000000000000b54                property_animation_init_layer_frame
                0x0000000000000b60                text_layer_set_text_alignment
                0x0000000000000b6c                graphics_draw_bitmap_in_rect
                0x0000000000000b78                graphics_text_draw
                0x0000000000000b84                layer_set_bounds
                0x0000000000000b90                layer_get_bounds
                0x0000000000000b9c                layer_set_update_proc
                0x0000000000000ba8                layer_get_window
                0x0000000000000bb4                layer_remove_child_layers
                0x0000000000000bc0                layer_insert_below_sibling
                0x0000000000000bcc                layer_insert_above_sibling
                0x0000000000000bd8                layer_get_hidden
                0x0000000000000be4                layer_set_clips
                0x0000000000000bf0                layer_get_clips
                0x0000000000000bfc                text_layer_get_max_used_size
                0x0000000000000c08                text_layer_set_size
                0x0000000000000c14                text_layer_set_overflow_mode
                0x0000000000000c20                graphics_text_layout_get_max_used_size
                0x0000000000000c2c                inverter_layer_init
                0x0000000000000c38                bitmap_layer_init
                0x0000000000000c44                bitmap_layer_set_bitmap
                0x0000000000000c50                bitmap_layer_set_alignment
                0x0000000000000c5c                bitmap_layer_set_background_color
                0x0000000000000c68                bitmap_layer_set_compositing_mode
                0x0000000000000c74                heap_bitmap_init
                0x0000000000000c80                heap_bitmap_deinit
                0x0000000000000c8c                click_recognizer_get_button_id
                0x0000000000000c98                click_number_of_clicks_counted
                0x0000000000000ca4                menu_cell_basic_draw
                0x0000000000000cb0                menu_cell_title_draw
                0x0000000000000cbc                menu_cell_basic_header_draw
                0x0000000000000cc8                menu_layer_init
                0x0000000000000cd4                menu_layer_get_layer
                0x0000000000000ce0                menu_layer_set_callbacks
                0x0000000000000cec                menu_layer_set_click_config_onto_window
                0x0000000000000cf8                menu_layer_set_selected_next
                0x0000000000000d04                menu_layer_set_selected_index
                0x0000000000000d10                menu_layer_reload_data
                0x0000000000000d1c                menu_index_compare
                0x0000000000000d28                scroll_layer_init
                0x0000000000000d34                scroll_layer_add_child
                0x0000000000000d40                scroll_layer_set_click_config_onto_window
                0x0000000000000d4c                scroll_layer_set_callbacks
                0x0000000000000d58                scroll_layer_set_context
                0x0000000000000d64                scroll_layer_set_content_offset
                0x0000000000000d70                scroll_layer_get_content_offset
                0x0000000000000d7c                scroll_layer_set_content_size
                0x0000000000000d88                scroll_layer_get_content_size
                0x0000000000000d94                scroll_layer_set_frame
                0x0000000000000da0                scroll_layer_scroll_up_click_handler
                0x0000000000000dac                scroll_layer_scroll_down_click_handler
                0x0000000000000db8                simple_menu_layer_init
                0x0000000000000dc4                simple_menu_layer_get_layer
                0x0000000000000dd0                simple_menu_layer_get_selected_index
                0x0000000000000ddc                simple_menu_layer_set_selected_index
                0x0000000000000de8                window_deinit
                0x0000000000000df4                window_set_click_config_provider_with_context
                0x0000000000000e00                window_get_click_config_provider
                0x0000000000000e0c                window_set_window_handlers
                0x0000000000000e18                window_get_root_layer
                0x0000000000000e24                window_get_fullscreen
                0x0000000000000e30                window_set_status_bar_icon
                0x0000000000000e3c                window_is_loaded
                0x0000000000000e48                window_stack_pop
                0x0000000000000e54                window_stack_pop_all
                0x0000000000000e60                window_stack_contains_window
                0x0000000000000e68                window_stack_get_top_window
                0x0000000000000e70                window_stack_remove
                0x0000000000000e78                property_animation_init
                0x0000000000000e80                property_animation_update_int16
                0x0000000000000e88                property_animation_update_gpoint
                0x0000000000000e90                property_animation_update_grect
                0x0000000000000e98                app_message_register_callbacks
                0x0000000000000ea0                app_message_deregister_callbacks
                0x0000000000000ea8                app_message_out_get
                0x0000000000000eb0                app_message_out_send
                0x0000000000000eb8                app_message_out_release
                0x0000000000000ec0                app_sync_init
                0x0000000000000ec8                app_sync_deinit
                0x0000000000000ed0                app_sync_set
                0x0000000000000ed8                app_sync_get
                0x0000000000000ee0                dict_calc_buffer_size
                0x0000000000000ee8                dict_write_begin
                0x0000000000000ef0                dict_write_data
                0x0000000000000ef8                dict_write_cstring
                0x0000000000000f00                dict_write_int
                0x0000000000000f08                dict_write_uint8
                0x0000000000000f10                dict_write_uint16
                0x0000000000000f18                dict_write_uint32
                0x0000000000000f20                dict_write_int8
                0x0000000000000f28                dict_write_int16
                0x0000000000000f30                dict_write_int32
                0x0000000000000f38                dict_write_end
                0x0000000000000f40                dict_read_begin_from_buffer
                0x0000000000000f48                dict_read_next
                0x0000000000000f50                dict_read_first
                0x0000000000000f58                dict_serialize_tuplets
                0x0000000000000f60                dict_serialize_tuplets_to_buffer
                0x0000000000000f68                dict_serialize_tuplets_to_buffer_with_iter
                0x0000000000000f70                dict_write_tuplet
                0x0000000000000f78                dict_calc_buffer_size_from_tuplets
                0x0000000000000f80                dict_merge
                0x0000000000000f88                dict_find
                0x0000000000000f90                action_bar_layer_init
                0x0000000000000f98                action_bar_layer_set_context
                0x0000000000000fa0                action_bar_layer_set_click_config_provider
                0x0000000000000fa8                action_bar_layer_set_icon
                0x0000000000000fb0                action_bar_layer_clear_icon
                0x0000000000000fb8                action_bar_layer_add_to_window
                0x0000000000000fc0                action_bar_layer_remove_from_window
                0x0000000000000fc8                action_bar_layer_set_background_color
                0x0000000000000fd0                number_window_init
                0x0000000000000fd8                number_window_set_label
                0x0000000000000fe0                number_window_set_max
                0x0000000000000fe8                number_window_set_min
                0x0000000000000ff0                number_window_set_value
                0x0000000000000ff8                number_window_set_step_size
                0x0000000000001000                number_window_get_value
                0x0000000000001008                clock_copy_time_string
 .text          0x0000000000001338        0x0 /Users/Rick/pebble-dev/arm-cs-tools/bin/../lib/gcc/arm-none-eabi/4.6.3/../../../../arm-none-eabi/lib/thumb2/libc.a(lib_a-memset.o)
 .text          0x0000000000001338        0x0 /Users/Rick/pebble-dev/arm-cs-tools/bin/../lib/gcc/arm-none-eabi/4.6.3/thumb2/crtend.o
 .text          0x0000000000001338        0x0 /Users/Rick/pebble-dev/arm-cs-tools/bin/../lib/gcc/arm-none-eabi/4.6.3/thumb2/crtn.o

.glue_7         0x0000000000001338        0x0
 .glue_7        0x0000000000000000        0x0 linker stubs

.glue_7t        0x0000000000001338        0x0
 .glue_7t       0x0000000000000000        0x0 linker stubs

.vfp11_veneer   0x0000000000001338        0x0
 .vfp11_veneer  0x0000000000000000        0x0 linker stubs

.v4_bx          0x0000000000001338        0x0
 .v4_bx         0x0000000000000000        0x0 linker stubs

.init           0x0000000000001338        0xc
 .init          0x0000000000001338        0x4 /Users/Rick/pebble-dev/arm-cs-tools/bin/../lib/gcc/arm-none-eabi/4.6.3/thumb2/crti.o
                0x0000000000001338                _init
 .init          0x000000000000133c        0x8 /Users/Rick/pebble-dev/arm-cs-tools/bin/../lib/gcc/arm-none-eabi/4.6.3/thumb2/crtn.o

.fini           0x0000000000001344        0xc
 .fini          0x0000000000001344        0x4 /Users/Rick/pebble-dev/arm-cs-tools/bin/../lib/gcc/arm-none-eabi/4.6.3/thumb2/crti.o
                0x0000000000001344                _fini
 .fini          0x0000000000001348        0x8 /Users/Rick/pebble-dev/arm-cs-tools/bin/../lib/gcc/arm-none-eabi/4.6.3/thumb2/crtn.o

.iplt           0x0000000000001350        0x0
 .iplt          0x0000000000000000        0x0 /Users/Rick/pebble-dev/arm-cs-tools/bin/../lib/gcc/arm-none-eabi/4.6.3/thumb2/crti.o

.text.memset    0x0000000000001350       0x10
 .text.memset   0x0000000000001350       0x10 /Users/Rick/pebble-dev/arm-cs-tools/bin/../lib/gcc/arm-none-eabi/4.6.3/../../../../arm-none-eabi/lib/thumb2/libc.a(lib_a-memset.o)
                0x0000000000001350                memset

.data           0x0000000000001360       0x14
 *(.data)
 .data          0x0000000000001360        0x0 /Users/Rick/pebble-dev/arm-cs-tools/bin/../lib/gcc/arm-none-eabi/4.6.3/thumb2/crti.o
 .data          0x0000000000001360        0x4 /Users/Rick/pebble-dev/arm-cs-tools/bin/../lib/gcc/arm-none-eabi/4.6.3/thumb2/crtbegin.o
                0x0000000000001360                __dso_handle
 .data          0x0000000000001364       0x10 src/MTGLifeCounter.c.1.o
 .data          0x0000000000001374        0x0 /Users/Rick/pebble-dev/myprojects/PebbleMTGLifeCounter/lib/libpebble.a(tmpE96Sgtpebble_os.o)
 .data          0x0000000000001374        0x0 /Users/Rick/pebble-dev/arm-cs-tools/bin/../lib/gcc/arm-none-eabi/4.6.3/../../../../arm-none-eabi/lib/thumb2/libc.a(lib_a-memset.o)
 .data          0x0000000000001374        0x0 /Users/Rick/pebble-dev/arm-cs-tools/bin/../lib/gcc/arm-none-eabi/4.6.3/thumb2/crtend.o
 .data          0x0000000000001374        0x0 /Users/Rick/pebble-dev/arm-cs-tools/bin/../lib/gcc/arm-none-eabi/4.6.3/thumb2/crtn.o

.igot.plt       0x0000000000001374        0x0
 .igot.plt      0x0000000000000000        0x0 /Users/Rick/pebble-dev/arm-cs-tools/bin/../lib/gcc/arm-none-eabi/4.6.3/thumb2/crti.o

.got            0x0000000000001374        0x4
 .got           0x0000000000001374        0x4 /Users/Rick/pebble-dev/arm-cs-tools/bin/../lib/gcc/arm-none-eabi/4.6.3/thumb2/crti.o

.got.plt        0x0000000000001378        0xc
 .got.plt       0x0000000000001378        0xc /Users/Rick/pebble-dev/arm-cs-tools/bin/../lib/gcc/arm-none-eabi/4.6.3/thumb2/crti.o
                0x0000000000001378                _GLOBAL_OFFSET_TABLE_

.init_array     0x0000000000001384        0x4
 .init_array    0x0000000000001384        0x4 /Users/Rick/pebble-dev/arm-cs-tools/bin/../lib/gcc/arm-none-eabi/4.6.3/thumb2/crtbegin.o

.fini_array     0x0000000000001388        0x4
 .fini_array    0x0000000000001388        0x4 /Users/Rick/pebble-dev/arm-cs-tools/bin/../lib/gcc/arm-none-eabi/4.6.3/thumb2/crtbegin.o

.jcr            0x000000000000138c        0x4
 .jcr           0x000000000000138c        0x0 /Users/Rick/pebble-dev/arm-cs-tools/bin/../lib/gcc/arm-none-eabi/4.6.3/thumb2/crtbegin.o
 .jcr           0x000000000000138c        0x4 /Users/Rick/pebble-dev/arm-cs-tools/bin/../lib/gcc/arm-none-eabi/4.6.3/thumb2/crtend.o

.bss            0x0000000000001390      0x170
 *(.bss)
 .bss           0x0000000000001390        0x0 /Users/Rick/pebble-dev/arm-cs-tools/bin/../lib/gcc/arm-none-eabi/4.6.3/thumb2/crti.o
 .bss           0x0000000000001390       0x1c /Users/Rick/pebble-dev/arm-cs-tools/bin/../lib/gcc/arm-none-eabi/4.6.3/thumb2/crtbegin.o
 .bss           0x00000000000013ac      0x150 src/MTGLifeCounter.c.1.o
 .bss           0x00000000000014fc        0x0 /Users/Rick/pebble-dev/myprojects/PebbleMTGLifeCounter/lib/libpebble.a(tmpE96Sgtpebble_os.o)
 .bss           0x00000000000014fc        0x0 /Users/Rick/pebble-dev/arm-cs-tools/bin/../lib/gcc/arm-none-eabi/4.6.3/../../../../arm-none-eabi/lib/thumb2/libc.a(lib_a-memset.o)
 .bss           0x00000000000014fc        0x0 /Users/Rick/pebble-dev/arm-cs-tools/bin/../lib/gcc/arm-none-eabi/4.6.3/thumb2/crtend.o
 .bss           0x00000000000014fc        0x0 /Users/Rick/pebble-dev/arm-cs-tools/bin/../lib/gcc/arm-none-eabi/4.6.3/thumb2/crtn.o
 COMMON         0x00000000000014fc        0x4 src/MTGLifeCounter.c.1.o
                0x00000000000014fc                app

DISCARD         0x0000000000001500        0x4
 libc.a(*)
 libm.a(*)
 libgcc.a(*)
 *(.eh_frame)
 .eh_frame      0x0000000000001500        0x0 /Users/Rick/pebble-dev/arm-cs-tools/bin/../lib/gcc/arm-none-eabi/4.6.3/thumb2/crtbegin.o
 .eh_frame      0x0000000000001500        0x4 /Users/Rick/pebble-dev/arm-cs-tools/bin/../lib/gcc/arm-none-eabi/4.6.3/thumb2/crtend.o
OUTPUT(/Users/Rick/pebble-dev/myprojects/PebbleMTGLifeCounter/build/pebble-app.elf elf32-littlearm)

.rodata         0x0000000000001504       0x58
 .rodata        0x0000000000001504       0x58 src/MTGLifeCounter.c.1.o

.rel.dyn        0x000000000000155c        0x0
 .rel.iplt      0x0000000000000000        0x0 /Users/Rick/pebble-dev/arm-cs-tools/bin/../lib/gcc/arm-none-eabi/4.6.3/thumb2/crti.o
 .rel.got       0x0000000000000000        0x0 /Users/Rick/pebble-dev/arm-cs-tools/bin/../lib/gcc/arm-none-eabi/4.6.3/thumb2/crti.o

.ARM.attributes
                0x0000000000000000       0x27
 .ARM.attributes
                0x0000000000000000       0x1b /Users/Rick/pebble-dev/arm-cs-tools/bin/../lib/gcc/arm-none-eabi/4.6.3/thumb2/crti.o
 .ARM.attributes
                0x000000000000001b       0x2b /Users/Rick/pebble-dev/arm-cs-tools/bin/../lib/gcc/arm-none-eabi/4.6.3/thumb2/crtbegin.o
 .ARM.attributes
                0x0000000000000046       0x33 src/MTGLifeCounter.c.1.o
 .ARM.attributes
                0x0000000000000079       0x21 /Users/Rick/pebble-dev/myprojects/PebbleMTGLifeCounter/lib/libpebble.a(tmpE96Sgtpebble_os.o)
 .ARM.attributes
                0x000000000000009a       0x2b /Users/Rick/pebble-dev/arm-cs-tools/bin/../lib/gcc/arm-none-eabi/4.6.3/../../../../arm-none-eabi/lib/thumb2/libc.a(lib_a-memset.o)
 .ARM.attributes
                0x00000000000000c5       0x2b /Users/Rick/pebble-dev/arm-cs-tools/bin/../lib/gcc/arm-none-eabi/4.6.3/thumb2/crtend.o
 .ARM.attributes
                0x00000000000000f0       0x1b /Users/Rick/pebble-dev/arm-cs-tools/bin/../lib/gcc/arm-none-eabi/4.6.3/thumb2/crtn.o

.comment        0x0000000000000000       0x4e
 .comment       0x0000000000000000       0x4e /Users/Rick/pebble-dev/arm-cs-tools/bin/../lib/gcc/arm-none-eabi/4.6.3/thumb2/crtbegin.o
                                         0x4f (size before relaxing)
 .comment       0x0000000000000000       0x4f src/MTGLifeCounter.c.1.o
 .comment       0x0000000000000000       0x4f /Users/Rick/pebble-dev/arm-cs-tools/bin/../lib/gcc/arm-none-eabi/4.6.3/../../../../arm-none-eabi/lib/thumb2/libc.a(lib_a-memset.o)
 .comment       0x0000000000000000       0x4f /Users/Rick/pebble-dev/arm-cs-tools/bin/../lib/gcc/arm-none-eabi/4.6.3/thumb2/crtend.o

.debug_line     0x0000000000000000      0x2cf
 .debug_line    0x0000000000000000       0x71 /Users/Rick/pebble-dev/arm-cs-tools/bin/../lib/gcc/arm-none-eabi/4.6.3/thumb2/crti.o
 .debug_line    0x0000000000000071      0x1e9 src/MTGLifeCounter.c.1.o
 .debug_line    0x000000000000025a       0x75 /Users/Rick/pebble-dev/arm-cs-tools/bin/../lib/gcc/arm-none-eabi/4.6.3/thumb2/crtn.o

.debug_info     0x0000000000000000     0x170c
 .debug_info    0x0000000000000000       0xb2 /Users/Rick/pebble-dev/arm-cs-tools/bin/../lib/gcc/arm-none-eabi/4.6.3/thumb2/crti.o
 .debug_info    0x00000000000000b2     0x15a8 src/MTGLifeCounter.c.1.o
 .debug_info    0x000000000000165a       0xb2 /Users/Rick/pebble-dev/arm-cs-tools/bin/../lib/gcc/arm-none-eabi/4.6.3/thumb2/crtn.o

.debug_abbrev   0x0000000000000000      0x22a
 .debug_abbrev  0x0000000000000000       0x12 /Users/Rick/pebble-dev/arm-cs-tools/bin/../lib/gcc/arm-none-eabi/4.6.3/thumb2/crti.o
 .debug_abbrev  0x0000000000000012      0x206 src/MTGLifeCounter.c.1.o
 .debug_abbrev  0x0000000000000218       0x12 /Users/Rick/pebble-dev/arm-cs-tools/bin/../lib/gcc/arm-none-eabi/4.6.3/thumb2/crtn.o

.debug_aranges  0x0000000000000000       0x70
 .debug_aranges
                0x0000000000000000       0x28 /Users/Rick/pebble-dev/arm-cs-tools/bin/../lib/gcc/arm-none-eabi/4.6.3/thumb2/crti.o
 .debug_aranges
                0x0000000000000028       0x20 src/MTGLifeCounter.c.1.o
 .debug_aranges
                0x0000000000000048       0x28 /Users/Rick/pebble-dev/arm-cs-tools/bin/../lib/gcc/arm-none-eabi/4.6.3/thumb2/crtn.o

.debug_ranges   0x0000000000000000       0x40
 .debug_ranges  0x0000000000000000       0x20 /Users/Rick/pebble-dev/arm-cs-tools/bin/../lib/gcc/arm-none-eabi/4.6.3/thumb2/crti.o
 .debug_ranges  0x0000000000000020       0x20 /Users/Rick/pebble-dev/arm-cs-tools/bin/../lib/gcc/arm-none-eabi/4.6.3/thumb2/crtn.o

.debug_loc      0x0000000000000000      0x28a
 .debug_loc     0x0000000000000000      0x28a src/MTGLifeCounter.c.1.o

.debug_str      0x0000000000000000      0xdda
 .debug_str     0x0000000000000000      0xdda src/MTGLifeCounter.c.1.o
                                        0xed1 (size before relaxing)

.debug_frame    0x0000000000000000      0x180
 .debug_frame   0x0000000000000000      0x180 src/MTGLifeCounter.c.1.o
